Certificate:
    Data:
        Version: 3 (0x2)
        Serial Number: 13135752980835094825 (0xb64b91bd67f45129)
    Signature Algorithm: sha256WithRSAEncryption
        Issuer: CN=Monaca
        Validity
            Not Before: Jun 30 07:40:51 2016 GMT
            Not After : Jun 30 07:40:51 2019 GMT
        Subject: CN=monaca-debug-app
        Subject Public Key Info:
            Public Key Algorithm: rsaEncryption
                Public-Key: (2048 bit)
                Modulus:
                    00:d9:fa:87:fd:01:11:2b:7c:e8:56:56:53:24:33:
                    9a:59:0f:25:32:e9:db:29:09:7c:29:de:e4:5b:95:
                    8d:8e:11:47:c4:5a:2f:87:07:7e:24:5b:0b:ec:3a:
                    e1:3f:28:98:e7:72:e0:38:3b:e4:9c:70:cc:fe:6f:
                    55:86:1a:ad:a7:85:6a:a1:43:72:04:73:f2:41:a9:
                    0b:8f:de:df:56:f4:d9:46:e0:aa:1f:53:49:d0:08:
                    14:80:ec:cd:0a:6e:dd:23:b6:34:ad:a0:97:4f:9f:
                    d8:c1:3f:bc:7e:42:8e:8b:ff:0d:e5:3f:61:16:05:
                    14:79:b9:79:e9:8c:57:3d:db:f0:99:52:5b:75:d9:
                    fa:b0:e2:da:23:d5:88:36:7c:47:ba:80:81:cd:6e:
                    0c:7e:84:1d:a0:09:eb:f6:2d:7b:49:74:c3:4d:4a:
                    ae:5e:15:99:f1:bd:52:ea:c5:f8:14:1e:8b:dd:41:
                    d8:7c:4e:20:df:b2:c1:4b:64:47:35:14:8d:fd:52:
                    1a:a9:cc:bb:52:14:36:1b:12:8f:96:80:e0:d7:56:
                    aa:cb:55:f9:70:79:d8:6e:fd:6d:cc:e0:e1:7c:24:
                    92:dd:e6:b5:a4:3c:cc:b9:c9:26:fd:cc:ac:2e:61:
                    79:68:de:ac:12:ff:a4:40:ef:7f:d3:06:c9:0f:75:
                    25:13
                Exponent: 65537 (0x10001)
        X509v3 extensions:
            X509v3 Basic Constraints: 
                CA:FALSE
            Netscape Comment: 
                OpenSSL Generated Certificate
            X509v3 Subject Key Identifier: 
                C4:C2:2D:31:09:78:5D:65:B7:47:DD:9E:E0:BB:B4:DA:AC:1C:E7:B5
            X509v3 Authority Key Identifier: 
                keyid:E1:C2:82:2D:04:9F:BC:50:9C:53:B3:61:5B:6D:6F:70:F6:CA:4F:01

            X509v3 Extended Key Usage: 
                Code Signing
    Signature Algorithm: sha256WithRSAEncryption
         90:3e:0a:c5:65:9b:33:5c:09:d5:42:79:96:e2:c4:06:c8:f4:
         e1:48:4b:a6:a9:2a:d9:49:e1:14:68:66:43:3a:13:62:5c:e5:
         bb:20:04:72:12:b3:07:cd:5e:9d:8d:b1:f0:a3:78:f1:aa:63:
         3f:a4:b5:b5:10:7c:fb:b2:ec:0f:c6:aa:72:10:ec:22:5c:da:
         09:5d:c7:c5:3f:f0:3b:c9:3d:ce:d4:4c:f6:99:2a:de:b8:6a:
         af:24:e9:87:5e:e9:fa:a3:42:68:0e:77:8b:f5:b4:dc:ac:3e:
         a7:b1:03:5a:cc:e4:4d:cd:2d:00:57:ce:09:bd:99:8f:2d:d0:
         30:b9:38:b6:88:7e:cb:a0:ff:3e:ca:74:97:80:df:22:dc:76:
         82:ad:b8:af:ca:f5:ad:b6:eb:82:32:d8:0c:dc:c1:03:61:a8:
         06:66:3e:fa:9d:82:26:0f:bf:af:dd:a6:83:3b:9b:17:8f:4f:
         fe:20:45:de:fc:40:a2:a8:de:c0:b4:1a:51:0e:80:1d:fd:d7:
         20:13:f9:66:50:f1:62:6c:38:a2:b3:2d:a5:78:14:d2:d8:c9:
         fc:01:fb:96:8a:86:78:2e:c2:03:6c:84:7f:a5:19:7b:ed:53:
         e8:0a:f9:07:c4:5b:91:19:26:ab:51:a1:2c:c1:ec:17:25:30:
         84:cd:c1:09
-----BEGIN CERTIFICATE-----
MIIDQTCCAimgAwIBAgIJALZLkb1n9FEpMA0GCSqGSIb3DQEBCwUAMBExDzANBgNV
BAMTBk1vbmFjYTAeFw0xNjA2MzAwNzQwNTFaFw0xOTA2MzAwNzQwNTFaMBsxGTAX
BgNVBAMTEG1vbmFjYS1kZWJ1Zy1hcHAwggEiMA0GCSqGSIb3DQEBAQUAA4IBDwAw
ggEKAoIBAQDZ+of9ARErfOhWVlMkM5pZDyUy6dspCXwp3uRblY2OEUfEWi+HB34k
WwvsOuE/KJjncuA4O+SccMz+b1WGGq2nhWqhQ3IEc/JBqQuP3t9W9NlG4KofU0nQ
CBSA7M0Kbt0jtjStoJdPn9jBP7x+Qo6L/w3lP2EWBRR5uXnpjFc92/CZUlt12fqw
4toj1Yg2fEe6gIHNbgx+hB2gCev2LXtJdMNNSq5eFZnxvVLqxfgUHovdQdh8TiDf
ssFLZEc1FI39UhqpzLtSFDYbEo+WgODXVqrLVflwedhu/W3M4OF8JJLd5rWkPMy5
ySb9zKwuYXlo3qwS/6RA73/TBskPdSUTAgMBAAGjgZEwgY4wCQYDVR0TBAIwADAs
BglghkgBhvhCAQ0EHxYdT3BlblNTTCBHZW5lcmF0ZWQgQ2VydGlmaWNhdGUwHQYD
VR0OBBYEFMTCLTEJeF1lt0fdnuC7tNqsHOe1MB8GA1UdIwQYMBaAFOHCgi0En7xQ
nFOzYVttb3D2yk8BMBMGA1UdJQQMMAoGCCsGAQUFBwMDMA0GCSqGSIb3DQEBCwUA
A4IBAQCQPgrFZZszXAnVQnmW4sQGyPThSEumqSrZSeEUaGZDOhNiXOW7IARyErMH
zV6djbHwo3jxqmM/pLW1EHz7suwPxqpyEOwiXNoJXcfFP/A7yT3O1Ez2mSreuGqv
JOmHXun6o0JoDneL9bTcrD6nsQNazORNzS0AV84JvZmPLdAwuTi2iH7LoP8+ynSX
gN8i3HaCrbivyvWttuuCMtgM3MEDYagGZj76nYImD7+v3aaDO5sXj0/+IEXe/ECi
qN7AtBpRDoAd/dcgE/lmUPFibDiisy2leBTS2Mn8AfuWioZ4LsIDbIR/pRl77VPo
CvkHxFuRGSarUaEswewXJTCEzcEJ
-----END CERTIFICATE-----
